; Function Attrs: mustprogress uwtable
define void @_ZN7rocksdb24CompressedSecondaryCache5EraseERKNS_5SliceE(ptr nocapture noundef nonnull readonly align 8 dereferenceable(217) %this, ptr noundef nonnull align 8 dereferenceable(16) %key) unnamed_addr #0 align 2 {
entry:
  %cache_ = getelementptr inbounds i8, ptr %this, i64 32
  %0 = load ptr, ptr %cache_, align 8
  %vtable = load ptr, ptr %0, align 8
  %vfn = getelementptr inbounds i8, ptr %vtable, i64 72
  %1 = load ptr, ptr %vfn, align 8
  tail call void %1(ptr noundef nonnull align 8 dereferenceable(56) %0, ptr noundef nonnull align 8 dereferenceable(16) %key)
  ret void
}